target datalayout = "e-m:e-p270:32:32-p271:32:32-p272:64:64-i64:64-i128:128-f80:128-n8:16:32:64-S128"
target triple = "x86_64-pc-linux-gnu"

%struct.anon = type { i32, [0 x i8] }
%struct.FunctionCallInfoBaseData = type { ptr, ptr, ptr, i32, i8, i16, [0 x %struct.NullableDatum] }
%struct.NullableDatum = type { i64, i8 }

@.str = private unnamed_addr constant [33 x i8] c"invalid input syntax for type %s\00", align 1
@.str.1 = private unnamed_addr constant [6 x i8] c"bytea\00", align 1
@.str.2 = private unnamed_addr constant [10 x i8] c"varlena.c\00", align 1
@__func__.byteain = private unnamed_addr constant [8 x i8] c"byteain\00", align 1

; Function Attrs: inlinehint nounwind uwtable
define internal ptr @DatumGetPointer(i64 noundef %0) #0 {
  %2 = alloca i64, align 8
  store i64 %0, ptr %2, align 8
  %3 = load i64, ptr %2, align 8
  %4 = inttoptr i64 %3 to ptr
  ret ptr %4
}

; Function Attrs: inlinehint nounwind uwtable
define internal i64 @PointerGetDatum(ptr noundef %0) #0 {
  %2 = alloca ptr, align 8
  store ptr %0, ptr %2, align 8
  %3 = load ptr, ptr %2, align 8
  %4 = ptrtoint ptr %3 to i64
  ret i64 %4
}

; Function Attrs: inlinehint nounwind uwtable
define internal ptr @DatumGetCString(i64 noundef %0) #0 {
  %2 = alloca i64, align 8
  store i64 %0, ptr %2, align 8
  %3 = load i64, ptr %2, align 8
  %4 = call ptr @DatumGetPointer(i64 noundef %3)
  ret ptr %4
}

; Function Attrs: nounwind uwtable
define dso_local i64 @byteain(ptr noundef %0) #1 {
  %2 = alloca i64, align 8
  %3 = alloca ptr, align 8
  %4 = alloca ptr, align 8
  %5 = alloca ptr, align 8
  %6 = alloca ptr, align 8
  %7 = alloca ptr, align 8
  %8 = alloca i32, align 4
  %9 = alloca ptr, align 8
  %10 = alloca i64, align 8
  %11 = alloca i32, align 4
  %12 = alloca ptr, align 8
  %13 = alloca ptr, align 8
  store ptr %0, ptr %3, align 8
  call void @llvm.lifetime.start.p0(i64 8, ptr %4) #13
  %14 = load ptr, ptr %3, align 8
  %15 = getelementptr inbounds nuw %struct.FunctionCallInfoBaseData, ptr %14, i32 0, i32 6
  %16 = getelementptr inbounds [0 x %struct.NullableDatum], ptr %15, i64 0, i64 0
  %17 = getelementptr inbounds nuw %struct.NullableDatum, ptr %16, i32 0, i32 0
  %18 = load i64, ptr %17, align 8
  %19 = call ptr @DatumGetCString(i64 noundef %18)
  store ptr %19, ptr %4, align 8
  call void @llvm.lifetime.start.p0(i64 8, ptr %5) #13
  %20 = load ptr, ptr %3, align 8
  %21 = getelementptr inbounds nuw %struct.FunctionCallInfoBaseData, ptr %20, i32 0, i32 1
  %22 = load ptr, ptr %21, align 8
  store ptr %22, ptr %5, align 8
  call void @llvm.lifetime.start.p0(i64 8, ptr %6) #13
  call void @llvm.lifetime.start.p0(i64 8, ptr %7) #13
  call void @llvm.lifetime.start.p0(i64 4, ptr %8) #13
  call void @llvm.lifetime.start.p0(i64 8, ptr %9) #13
  %23 = load ptr, ptr %4, align 8
  %24 = getelementptr inbounds i8, ptr %23, i64 0
  %25 = load i8, ptr %24, align 1
  %26 = sext i8 %25 to i32
  %27 = icmp eq i32 %26, 92
  br i1 %27, label %28, label %62

28:                                               ; preds = %1
  %29 = load ptr, ptr %4, align 8
  %30 = getelementptr inbounds i8, ptr %29, i64 1
  %31 = load i8, ptr %30, align 1
  %32 = sext i8 %31 to i32
  %33 = icmp eq i32 %32, 120
  br i1 %33, label %34, label %62

34:                                               ; preds = %28
  call void @llvm.lifetime.start.p0(i64 8, ptr %10) #13
  %35 = load ptr, ptr %4, align 8
  %36 = call i64 @strlen(ptr noundef %35) #12
  store i64 %36, ptr %10, align 8
  %37 = load i64, ptr %10, align 8
  %38 = sub i64 %37, 2
  %39 = udiv i64 %38, 2
  %40 = add i64 %39, 4
  %41 = trunc i64 %40 to i32
  store i32 %41, ptr %8, align 4
  %42 = load i32, ptr %8, align 4
  %43 = sext i32 %42 to i64
  %44 = call ptr @palloc(i64 noundef %43)
  store ptr %44, ptr %9, align 8
  %45 = load ptr, ptr %4, align 8
  %46 = getelementptr inbounds i8, ptr %45, i64 2
  %47 = load i64, ptr %10, align 8
  %48 = sub i64 %47, 2
  %49 = load ptr, ptr %9, align 8
  %50 = getelementptr inbounds nuw %struct.anon, ptr %49, i32 0, i32 1
  %51 = getelementptr inbounds [0 x i8], ptr %50, i64 0, i64 0
  %52 = load ptr, ptr %5, align 8
  %53 = call i64 @hex_decode_safe(ptr noundef %46, i64 noundef %48, ptr noundef %51, ptr noundef %52)
  %54 = trunc i64 %53 to i32
  store i32 %54, ptr %8, align 4
  %55 = load i32, ptr %8, align 4
  %56 = add i32 %55, 4
  %57 = shl i32 %56, 2
  %58 = load ptr, ptr %9, align 8
  %59 = getelementptr inbounds nuw %struct.anon, ptr %58, i32 0, i32 0
  store i32 %57, ptr %59, align 4
  %60 = load ptr, ptr %9, align 8
  %61 = call i64 @PointerGetDatum(ptr noundef %60)
  store i64 %61, ptr %2, align 8
  store i32 1, ptr %11, align 4
  call void @llvm.lifetime.end.p0(i64 8, ptr %10) #13
  br label %299

62:                                               ; preds = %28, %1
  store i32 0, ptr %8, align 4
  %63 = load ptr, ptr %4, align 8
  store ptr %63, ptr %6, align 8
  br label %64

64:                                               ; preds = %156, %62
  %65 = load ptr, ptr %6, align 8
  %66 = load i8, ptr %65, align 1
  %67 = sext i8 %66 to i32
  %68 = icmp ne i32 %67, 0
  br i1 %68, label %69, label %159

69:                                               ; preds = %64
  %70 = load ptr, ptr %6, align 8
  %71 = getelementptr inbounds i8, ptr %70, i64 0
  %72 = load i8, ptr %71, align 1
  %73 = sext i8 %72 to i32
  %74 = icmp ne i32 %73, 92
  br i1 %74, label %75, label %78

75:                                               ; preds = %69
  %76 = load ptr, ptr %6, align 8
  %77 = getelementptr inbounds nuw i8, ptr %76, i32 1
  store ptr %77, ptr %6, align 8
  br label %155

78:                                               ; preds = %69
  %79 = load ptr, ptr %6, align 8
  %80 = getelementptr inbounds i8, ptr %79, i64 0
  %81 = load i8, ptr %80, align 1
  %82 = sext i8 %81 to i32
  %83 = icmp eq i32 %82, 92
  br i1 %83, label %84, label %123

84:                                               ; preds = %78
  %85 = load ptr, ptr %6, align 8
  %86 = getelementptr inbounds i8, ptr %85, i64 1
  %87 = load i8, ptr %86, align 1
  %88 = sext i8 %87 to i32
  %89 = icmp sge i32 %88, 48
  br i1 %89, label %90, label %123

90:                                               ; preds = %84
  %91 = load ptr, ptr %6, align 8
  %92 = getelementptr inbounds i8, ptr %91, i64 1
  %93 = load i8, ptr %92, align 1
  %94 = sext i8 %93 to i32
  %95 = icmp sle i32 %94, 51
  br i1 %95, label %96, label %123

96:                                               ; preds = %90
  %97 = load ptr, ptr %6, align 8
  %98 = getelementptr inbounds i8, ptr %97, i64 2
  %99 = load i8, ptr %98, align 1
  %100 = sext i8 %99 to i32
  %101 = icmp sge i32 %100, 48
  br i1 %101, label %102, label %123

102:                                              ; preds = %96
  %103 = load ptr, ptr %6, align 8
  %104 = getelementptr inbounds i8, ptr %103, i64 2
  %105 = load i8, ptr %104, align 1
  %106 = sext i8 %105 to i32
  %107 = icmp sle i32 %106, 55
  br i1 %107, label %108, label %123

108:                                              ; preds = %102
  %109 = load ptr, ptr %6, align 8
  %110 = getelementptr inbounds i8, ptr %109, i64 3
  %111 = load i8, ptr %110, align 1
  %112 = sext i8 %111 to i32
  %113 = icmp sge i32 %112, 48
  br i1 %113, label %114, label %123

114:                                              ; preds = %108
  %115 = load ptr, ptr %6, align 8
  %116 = getelementptr inbounds i8, ptr %115, i64 3
  %117 = load i8, ptr %116, align 1
  %118 = sext i8 %117 to i32
  %119 = icmp sle i32 %118, 55
  br i1 %119, label %120, label %123

120:                                              ; preds = %114
  %121 = load ptr, ptr %6, align 8
  %122 = getelementptr inbounds i8, ptr %121, i64 4
  store ptr %122, ptr %6, align 8
  br label %154

123:                                              ; preds = %114, %108, %102, %96, %90, %84, %78
  %124 = load ptr, ptr %6, align 8
  %125 = getelementptr inbounds i8, ptr %124, i64 0
  %126 = load i8, ptr %125, align 1
  %127 = sext i8 %126 to i32
  %128 = icmp eq i32 %127, 92
  br i1 %128, label %129, label %138

129:                                              ; preds = %123
  %130 = load ptr, ptr %6, align 8
  %131 = getelementptr inbounds i8, ptr %130, i64 1
  %132 = load i8, ptr %131, align 1
  %133 = sext i8 %132 to i32
  %134 = icmp eq i32 %133, 92
  br i1 %134, label %135, label %138

135:                                              ; preds = %129
  %136 = load ptr, ptr %6, align 8
  %137 = getelementptr inbounds i8, ptr %136, i64 2
  store ptr %137, ptr %6, align 8
  br label %153

138:                                              ; preds = %129, %123
  br label %139

139:                                              ; preds = %138
  br label %140

140:                                              ; preds = %139
  call void @llvm.lifetime.start.p0(i64 8, ptr %12) #13
  %141 = load ptr, ptr %5, align 8
  store ptr %141, ptr %12, align 8
  %142 = load ptr, ptr %12, align 8
  %143 = call zeroext i1 @errsave_start(ptr noundef %142, ptr noundef null)
  br i1 %143, label %144, label %148

144:                                              ; preds = %140
  %145 = call i32 @errcode(i32 noundef 33685634)
  %146 = call i32 (ptr, ...) @errmsg(ptr noundef @.str, ptr noundef @.str.1)
  %147 = load ptr, ptr %12, align 8
  call void @errsave_finish(ptr noundef %147, ptr noundef @.str.2, i32 noundef 333, ptr noundef @__func__.byteain)
  br label %148

148:                                              ; preds = %144, %140
  call void @llvm.lifetime.end.p0(i64 8, ptr %12) #13
  br label %149

149:                                              ; preds = %148
  br label %150

150:                                              ; preds = %149
  store i64 0, ptr %2, align 8
  store i32 1, ptr %11, align 4
  br label %299

151:                                              ; No predecessors!
  br label %152

152:                                              ; preds = %151
  br label %153

153:                                              ; preds = %152, %135
  br label %154

154:                                              ; preds = %153, %120
  br label %155

155:                                              ; preds = %154, %75
  br label %156

156:                                              ; preds = %155
  %157 = load i32, ptr %8, align 4
  %158 = add i32 %157, 1
  store i32 %158, ptr %8, align 4
  br label %64, !llvm.loop !4

159:                                              ; preds = %64
  %160 = load i32, ptr %8, align 4
  %161 = add i32 %160, 4
  store i32 %161, ptr %8, align 4
  %162 = load i32, ptr %8, align 4
  %163 = sext i32 %162 to i64
  %164 = call ptr @palloc(i64 noundef %163)
  store ptr %164, ptr %9, align 8
  %165 = load i32, ptr %8, align 4
  %166 = shl i32 %165, 2
  %167 = load ptr, ptr %9, align 8
  %168 = getelementptr inbounds nuw %struct.anon, ptr %167, i32 0, i32 0
  store i32 %166, ptr %168, align 4
  %169 = load ptr, ptr %4, align 8
  store ptr %169, ptr %6, align 8
  %170 = load ptr, ptr %9, align 8
  %171 = getelementptr inbounds nuw %struct.anon, ptr %170, i32 0, i32 1
  %172 = getelementptr inbounds [0 x i8], ptr %171, i64 0, i64 0
  store ptr %172, ptr %7, align 8
  br label %173

173:                                              ; preds = %295, %159
  %174 = load ptr, ptr %6, align 8
  %175 = load i8, ptr %174, align 1
  %176 = sext i8 %175 to i32
  %177 = icmp ne i32 %176, 0
  br i1 %177, label %178, label %296

178:                                              ; preds = %173
  %179 = load ptr, ptr %6, align 8
  %180 = getelementptr inbounds i8, ptr %179, i64 0
  %181 = load i8, ptr %180, align 1
  %182 = sext i8 %181 to i32
  %183 = icmp ne i32 %182, 92
  br i1 %183, label %184, label %190

184:                                              ; preds = %178
  %185 = load ptr, ptr %6, align 8
  %186 = getelementptr inbounds nuw i8, ptr %185, i32 1
  store ptr %186, ptr %6, align 8
  %187 = load i8, ptr %185, align 1
  %188 = load ptr, ptr %7, align 8
  %189 = getelementptr inbounds nuw i8, ptr %188, i32 1
  store ptr %189, ptr %7, align 8
  store i8 %187, ptr %188, align 1
  br label %295

190:                                              ; preds = %178
  %191 = load ptr, ptr %6, align 8
  %192 = getelementptr inbounds i8, ptr %191, i64 0
  %193 = load i8, ptr %192, align 1
  %194 = sext i8 %193 to i32
  %195 = icmp eq i32 %194, 92
  br i1 %195, label %196, label %261

196:                                              ; preds = %190
  %197 = load ptr, ptr %6, align 8
  %198 = getelementptr inbounds i8, ptr %197, i64 1
  %199 = load i8, ptr %198, align 1
  %200 = sext i8 %199 to i32
  %201 = icmp sge i32 %200, 48
  br i1 %201, label %202, label %261

202:                                              ; preds = %196
  %203 = load ptr, ptr %6, align 8
  %204 = getelementptr inbounds i8, ptr %203, i64 1
  %205 = load i8, ptr %204, align 1
  %206 = sext i8 %205 to i32
  %207 = icmp sle i32 %206, 51
  br i1 %207, label %208, label %261

208:                                              ; preds = %202
  %209 = load ptr, ptr %6, align 8
  %210 = getelementptr inbounds i8, ptr %209, i64 2
  %211 = load i8, ptr %210, align 1
  %212 = sext i8 %211 to i32
  %213 = icmp sge i32 %212, 48
  br i1 %213, label %214, label %261

214:                                              ; preds = %208
  %215 = load ptr, ptr %6, align 8
  %216 = getelementptr inbounds i8, ptr %215, i64 2
  %217 = load i8, ptr %216, align 1
  %218 = sext i8 %217 to i32
  %219 = icmp sle i32 %218, 55
  br i1 %219, label %220, label %261

220:                                              ; preds = %214
  %221 = load ptr, ptr %6, align 8
  %222 = getelementptr inbounds i8, ptr %221, i64 3
  %223 = load i8, ptr %222, align 1
  %224 = sext i8 %223 to i32
  %225 = icmp sge i32 %224, 48
  br i1 %225, label %226, label %261

226:                                              ; preds = %220
  %227 = load ptr, ptr %6, align 8
  %228 = getelementptr inbounds i8, ptr %227, i64 3
  %229 = load i8, ptr %228, align 1
  %230 = sext i8 %229 to i32
  %231 = icmp sle i32 %230, 55
  br i1 %231, label %232, label %261

232:                                              ; preds = %226
  %233 = load ptr, ptr %6, align 8
  %234 = getelementptr inbounds i8, ptr %233, i64 1
  %235 = load i8, ptr %234, align 1
  %236 = sext i8 %235 to i32
  %237 = sub i32 %236, 48
  store i32 %237, ptr %8, align 4
  %238 = load i32, ptr %8, align 4
  %239 = shl i32 %238, 3
  store i32 %239, ptr %8, align 4
  %240 = load ptr, ptr %6, align 8
  %241 = getelementptr inbounds i8, ptr %240, i64 2
  %242 = load i8, ptr %241, align 1
  %243 = sext i8 %242 to i32
  %244 = sub i32 %243, 48
  %245 = load i32, ptr %8, align 4
  %246 = add i32 %245, %244
  store i32 %246, ptr %8, align 4
  %247 = load i32, ptr %8, align 4
  %248 = shl i32 %247, 3
  store i32 %248, ptr %8, align 4
  %249 = load i32, ptr %8, align 4
  %250 = load ptr, ptr %6, align 8
  %251 = getelementptr inbounds i8, ptr %250, i64 3
  %252 = load i8, ptr %251, align 1
  %253 = sext i8 %252 to i32
  %254 = sub i32 %253, 48
  %255 = add i32 %249, %254
  %256 = trunc i32 %255 to i8
  %257 = load ptr, ptr %7, align 8
  %258 = getelementptr inbounds nuw i8, ptr %257, i32 1
  store ptr %258, ptr %7, align 8
  store i8 %256, ptr %257, align 1
  %259 = load ptr, ptr %6, align 8
  %260 = getelementptr inbounds i8, ptr %259, i64 4
  store ptr %260, ptr %6, align 8
  br label %294

261:                                              ; preds = %226, %220, %214, %208, %202, %196, %190
  %262 = load ptr, ptr %6, align 8
  %263 = getelementptr inbounds i8, ptr %262, i64 0
  %264 = load i8, ptr %263, align 1
  %265 = sext i8 %264 to i32
  %266 = icmp eq i32 %265, 92
  br i1 %266, label %267, label %278

267:                                              ; preds = %261
  %268 = load ptr, ptr %6, align 8
  %269 = getelementptr inbounds i8, ptr %268, i64 1
  %270 = load i8, ptr %269, align 1
  %271 = sext i8 %270 to i32
  %272 = icmp eq i32 %271, 92
  br i1 %272, label %273, label %278

273:                                              ; preds = %267
  %274 = load ptr, ptr %7, align 8
  %275 = getelementptr inbounds nuw i8, ptr %274, i32 1
  store ptr %275, ptr %7, align 8
  store i8 92, ptr %274, align 1
  %276 = load ptr, ptr %6, align 8
  %277 = getelementptr inbounds i8, ptr %276, i64 2
  store ptr %277, ptr %6, align 8
  br label %293

278:                                              ; preds = %267, %261
  br label %279

279:                                              ; preds = %278
  br label %280

280:                                              ; preds = %279
  call void @llvm.lifetime.start.p0(i64 8, ptr %13) #13
  %281 = load ptr, ptr %5, align 8
  store ptr %281, ptr %13, align 8
  %282 = load ptr, ptr %13, align 8
  %283 = call zeroext i1 @errsave_start(ptr noundef %282, ptr noundef null)
  br i1 %283, label %284, label %288

284:                                              ; preds = %280
  %285 = call i32 @errcode(i32 noundef 33685634)
  %286 = call i32 (ptr, ...) @errmsg(ptr noundef @.str, ptr noundef @.str.1)
  %287 = load ptr, ptr %13, align 8
  call void @errsave_finish(ptr noundef %287, ptr noundef @.str.2, i32 noundef 374, ptr noundef @__func__.byteain)
  br label %288

288:                                              ; preds = %284, %280
  call void @llvm.lifetime.end.p0(i64 8, ptr %13) #13
  br label %289

289:                                              ; preds = %288
  br label %290

290:                                              ; preds = %289
  store i64 0, ptr %2, align 8
  store i32 1, ptr %11, align 4
  br label %299

291:                                              ; No predecessors!
  br label %292

292:                                              ; preds = %291
  br label %293

293:                                              ; preds = %292, %273
  br label %294

294:                                              ; preds = %293, %232
  br label %295

295:                                              ; preds = %294, %184
  br label %173, !llvm.loop !6

296:                                              ; preds = %173
  %297 = load ptr, ptr %9, align 8
  %298 = call i64 @PointerGetDatum(ptr noundef %297)
  store i64 %298, ptr %2, align 8
  store i32 1, ptr %11, align 4
  br label %299

299:                                              ; preds = %296, %290, %150, %34
  call void @llvm.lifetime.end.p0(i64 8, ptr %9) #13
  call void @llvm.lifetime.end.p0(i64 4, ptr %8) #13
  call void @llvm.lifetime.end.p0(i64 8, ptr %7) #13
  call void @llvm.lifetime.end.p0(i64 8, ptr %6) #13
  call void @llvm.lifetime.end.p0(i64 8, ptr %5) #13
  call void @llvm.lifetime.end.p0(i64 8, ptr %4) #13
  %300 = load i64, ptr %2, align 8
  ret i64 %300
}