; Function Attrs: nounwind uwtable
define dso_local i64 @byteain(ptr noundef readonly captures(none) %0) #0 {
  %2 = getelementptr inbounds nuw i8, ptr %0, i64 32
  %3 = load i64, ptr %2, align 8
  %4 = inttoptr i64 %3 to ptr
  %5 = getelementptr inbounds nuw i8, ptr %0, i64 8
  %6 = load ptr, ptr %5, align 8
  %7 = load i8, ptr %4, align 1
  %8 = icmp eq i8 %7, 92
  br i1 %8, label %9, label %.preheader

.preheader:                                       ; preds = %9, %1
  br label %26

9:                                                ; preds = %1
  %10 = getelementptr inbounds nuw i8, ptr %4, i64 1
  %11 = load i8, ptr %10, align 1
  %12 = icmp eq i8 %11, 120
  br i1 %12, label %13, label %.preheader

13:                                               ; preds = %9
  %14 = tail call i64 @strlen(ptr noundef nonnull dereferenceable(1) %4) #18
  %15 = add i64 %14, -2
  %16 = shl i64 %15, 31
  %sext = add i64 %16, 17179869184
  %17 = ashr i64 %sext, 32
  %18 = tail call ptr @palloc(i64 noundef %17) #19
  %19 = getelementptr inbounds nuw i8, ptr %4, i64 2
  %20 = getelementptr inbounds nuw i8, ptr %18, i64 4
  %21 = tail call i64 @hex_decode_safe(ptr noundef nonnull %19, i64 noundef %15, ptr noundef nonnull %20, ptr noundef %6) #19
  %22 = trunc i64 %21 to i32
  %23 = shl i32 %22, 2
  %24 = add i32 %23, 16
  store i32 %24, ptr %18, align 4
  %25 = ptrtoint ptr %18 to i64
  br label %89

26:                                               ; preds = %.preheader, %46
  %27 = phi i8 [ %.pre, %46 ], [ %7, %.preheader ]
  %.070 = phi i32 [ %48, %46 ], [ 0, %.preheader ]
  %.067 = phi ptr [ %47, %46 ], [ %4, %.preheader ]
  switch i8 %27, label %46 [
    i8 0, label %49
    i8 92, label %28
  ]

28:                                               ; preds = %26
  %29 = getelementptr inbounds nuw i8, ptr %.067, i64 1
  %30 = load i8, ptr %29, align 1
  %31 = and i8 %30, -4
  %or.cond = icmp eq i8 %31, 48
  br i1 %or.cond, label %32, label %40

32:                                               ; preds = %28
  %33 = getelementptr inbounds nuw i8, ptr %.067, i64 2
  %34 = load i8, ptr %33, align 1
  %35 = and i8 %34, -8
  %or.cond84 = icmp eq i8 %35, 48
  br i1 %or.cond84, label %36, label %.thread

36:                                               ; preds = %32
  %37 = getelementptr inbounds nuw i8, ptr %.067, i64 3
  %38 = load i8, ptr %37, align 1
  %39 = and i8 %38, -8
  %or.cond85 = icmp eq i8 %39, 48
  br i1 %or.cond85, label %46, label %.thread

40:                                               ; preds = %28
  %41 = icmp eq i8 %30, 92
  br i1 %41, label %46, label %.thread

.thread:                                          ; preds = %36, %32, %40
  %42 = tail call zeroext i1 @errsave_start(ptr noundef %6, ptr noundef null) #19
  br i1 %42, label %43, label %89

43:                                               ; preds = %.thread
  %44 = tail call i32 @errcode(i32 noundef 33685634) #19
  %45 = tail call i32 (ptr, ...) @errmsg(ptr noundef nonnull @.str, ptr noundef nonnull @.str.1) #19
  tail call void @errsave_finish(ptr noundef %6, ptr noundef nonnull @.str.2, i32 noundef 333, ptr noundef nonnull @__func__.byteain) #19
  br label %89

46:                                               ; preds = %40, %36, %26
  %.sink = phi i64 [ 1, %26 ], [ 4, %36 ], [ 2, %40 ]
  %47 = getelementptr inbounds nuw i8, ptr %.067, i64 %.sink
  %48 = add i32 %.070, 1
  %.pre = load i8, ptr %47, align 1
  br label %26, !llvm.loop !4

49:                                               ; preds = %26
  %50 = add i32 %.070, 4
  %51 = sext i32 %50 to i64
  %52 = tail call ptr @palloc(i64 noundef %51) #19
  %53 = shl i32 %50, 2
  store i32 %53, ptr %52, align 4
  %54 = getelementptr inbounds nuw i8, ptr %52, i64 4
  br label %55

55:                                               ; preds = %86, %49
  %.068 = phi ptr [ %54, %49 ], [ %.169, %86 ]
  %.2 = phi ptr [ %4, %49 ], [ %.3, %86 ]
  %56 = load i8, ptr %.2, align 1
  switch i8 %56, label %57 [
    i8 0, label %87
    i8 92, label %59
  ]

57:                                               ; preds = %55
  %58 = getelementptr inbounds nuw i8, ptr %.2, i64 1
  store i8 %56, ptr %.068, align 1
  br label %86

59:                                               ; preds = %55
  %60 = getelementptr inbounds nuw i8, ptr %.2, i64 1
  %61 = load i8, ptr %60, align 1
  %62 = and i8 %61, -4
  %or.cond86 = icmp eq i8 %62, 48
  br i1 %or.cond86, label %63, label %78

63:                                               ; preds = %59
  %64 = getelementptr inbounds nuw i8, ptr %.2, i64 2
  %65 = load i8, ptr %64, align 1
  %66 = and i8 %65, -8
  %or.cond87 = icmp eq i8 %66, 48
  br i1 %or.cond87, label %67, label %.thread90

67:                                               ; preds = %63
  %68 = getelementptr inbounds nuw i8, ptr %.2, i64 3
  %69 = load i8, ptr %68, align 1
  %70 = and i8 %69, -8
  %or.cond88 = icmp eq i8 %70, 48
  br i1 %or.cond88, label %71, label %.thread90

71:                                               ; preds = %67
  %72 = shl i8 %61, 6
  %73 = shl i8 %65, 3
  %74 = and i8 %73, 56
  %75 = or disjoint i8 %74, %72
  %narrow82 = add nsw i8 %69, -48
  %76 = or disjoint i8 %narrow82, %75
  store i8 %76, ptr %.068, align 1
  %77 = getelementptr inbounds nuw i8, ptr %.2, i64 4
  br label %86

78:                                               ; preds = %59
  %79 = icmp eq i8 %61, 92
  br i1 %79, label %80, label %.thread90

80:                                               ; preds = %78
  store i8 92, ptr %.068, align 1
  %81 = getelementptr inbounds nuw i8, ptr %.2, i64 2
  br label %86

.thread90:                                        ; preds = %67, %63, %78
  %82 = tail call zeroext i1 @errsave_start(ptr noundef %6, ptr noundef null) #19
  br i1 %82, label %83, label %89

83:                                               ; preds = %.thread90
  %84 = tail call i32 @errcode(i32 noundef 33685634) #19
  %85 = tail call i32 (ptr, ...) @errmsg(ptr noundef nonnull @.str, ptr noundef nonnull @.str.1) #19
  tail call void @errsave_finish(ptr noundef %6, ptr noundef nonnull @.str.2, i32 noundef 374, ptr noundef nonnull @__func__.byteain) #19
  br label %89

86:                                               ; preds = %71, %80, %57
  %.3 = phi ptr [ %58, %57 ], [ %77, %71 ], [ %81, %80 ]
  %.169 = getelementptr inbounds nuw i8, ptr %.068, i64 1
  br label %55, !llvm.loop !6

87:                                               ; preds = %55
  %88 = ptrtoint ptr %52 to i64
  br label %89

89:                                               ; preds = %.thread90, %83, %.thread, %43, %87, %13
  %.0 = phi i64 [ %25, %13 ], [ %88, %87 ], [ 0, %43 ], [ 0, %.thread ], [ 0, %83 ], [ 0, %.thread90 ]
  ret i64 %.0
}